target datalayout = "e-m:e-p270:32:32-p271:32:32-p272:64:64-i64:64-i128:128-f80:128-n8:16:32:64-S128"
target triple = "x86_64-pc-linux-gnu"

%struct.fetch_config = type { i32, i32, i32, i32, i32, i32, i32, i32 }

@verbosity = internal global i32 0, align 4
@force = internal global i32 0, align 4
@tags = internal global i32 1, align 4
@prune = internal global i32 -1, align 4
@prune_tags = internal global i32 -1, align 4
@dry_run = internal global i32 0, align 4
@write_fetch_head = internal global i32 1, align 4
@keep = internal global i32 0, align 4
@update_head_ok = internal global i32 0, align 4
@family = internal global i32 0, align 4
@.str.97 = private unnamed_addr constant [21 x i8] c"--recurse-submodules\00", align 1
@.str.98 = private unnamed_addr constant [12 x i8] c"--porcelain\00", align 1
@.str.267 = private unnamed_addr constant [10 x i8] c"--dry-run\00", align 1
@.str.268 = private unnamed_addr constant [8 x i8] c"--prune\00", align 1
@.str.269 = private unnamed_addr constant [11 x i8] c"--no-prune\00", align 1
@.str.270 = private unnamed_addr constant [13 x i8] c"--prune-tags\00", align 1
@.str.271 = private unnamed_addr constant [16 x i8] c"--no-prune-tags\00", align 1
@.str.272 = private unnamed_addr constant [17 x i8] c"--update-head-ok\00", align 1
@.str.273 = private unnamed_addr constant [8 x i8] c"--force\00", align 1
@.str.274 = private unnamed_addr constant [7 x i8] c"--keep\00", align 1
@.str.275 = private unnamed_addr constant [24 x i8] c"--no-recurse-submodules\00", align 1
@.str.276 = private unnamed_addr constant [31 x i8] c"--recurse-submodules=on-demand\00", align 1
@.str.277 = private unnamed_addr constant [7 x i8] c"--tags\00", align 1
@.str.278 = private unnamed_addr constant [10 x i8] c"--no-tags\00", align 1
@.str.279 = private unnamed_addr constant [3 x i8] c"-v\00", align 1
@.str.280 = private unnamed_addr constant [3 x i8] c"-q\00", align 1
@.str.281 = private unnamed_addr constant [7 x i8] c"--ipv4\00", align 1
@.str.282 = private unnamed_addr constant [7 x i8] c"--ipv6\00", align 1
@.str.283 = private unnamed_addr constant [22 x i8] c"--no-write-fetch-head\00", align 1

; Function Attrs: nounwind uwtable
define internal void @add_options_to_argv(ptr noundef %0, ptr noundef %1) #0 {
  %3 = alloca ptr, align 8
  %4 = alloca ptr, align 8
  store ptr %0, ptr %3, align 8, !tbaa !169
  store ptr %1, ptr %4, align 8, !tbaa !111
  %5 = load i32, ptr @dry_run, align 4, !tbaa !4
  %6 = icmp ne i32 %5, 0
  br i1 %6, label %7, label %10

7:                                                ; preds = %2
  %8 = load ptr, ptr %3, align 8, !tbaa !169
  %9 = call ptr @strvec_push(ptr noundef %8, ptr noundef @.str.267)
  br label %10

10:                                               ; preds = %7, %2
  %11 = load i32, ptr @prune, align 4, !tbaa !4
  %12 = icmp ne i32 %11, -1
  br i1 %12, label %13, label %19

13:                                               ; preds = %10
  %14 = load ptr, ptr %3, align 8, !tbaa !169
  %15 = load i32, ptr @prune, align 4, !tbaa !4
  %16 = icmp ne i32 %15, 0
  %17 = select i1 %16, ptr @.str.268, ptr @.str.269
  %18 = call ptr @strvec_push(ptr noundef %14, ptr noundef %17)
  br label %19

19:                                               ; preds = %13, %10
  %20 = load i32, ptr @prune_tags, align 4, !tbaa !4
  %21 = icmp ne i32 %20, -1
  br i1 %21, label %22, label %28

22:                                               ; preds = %19
  %23 = load ptr, ptr %3, align 8, !tbaa !169
  %24 = load i32, ptr @prune_tags, align 4, !tbaa !4
  %25 = icmp ne i32 %24, 0
  %26 = select i1 %25, ptr @.str.270, ptr @.str.271
  %27 = call ptr @strvec_push(ptr noundef %23, ptr noundef %26)
  br label %28

28:                                               ; preds = %22, %19
  %29 = load i32, ptr @update_head_ok, align 4, !tbaa !4
  %30 = icmp ne i32 %29, 0
  br i1 %30, label %31, label %34

31:                                               ; preds = %28
  %32 = load ptr, ptr %3, align 8, !tbaa !169
  %33 = call ptr @strvec_push(ptr noundef %32, ptr noundef @.str.272)
  br label %34

34:                                               ; preds = %31, %28
  %35 = load i32, ptr @force, align 4, !tbaa !4
  %36 = icmp ne i32 %35, 0
  br i1 %36, label %37, label %40

37:                                               ; preds = %34
  %38 = load ptr, ptr %3, align 8, !tbaa !169
  %39 = call ptr @strvec_push(ptr noundef %38, ptr noundef @.str.273)
  br label %40

40:                                               ; preds = %37, %34
  %41 = load i32, ptr @keep, align 4, !tbaa !4
  %42 = icmp ne i32 %41, 0
  br i1 %42, label %43, label %46

43:                                               ; preds = %40
  %44 = load ptr, ptr %3, align 8, !tbaa !169
  %45 = call ptr @strvec_push(ptr noundef %44, ptr noundef @.str.274)
  br label %46

46:                                               ; preds = %43, %40
  %47 = load ptr, ptr %4, align 8, !tbaa !111
  %48 = getelementptr inbounds nuw %struct.fetch_config, ptr %47, i32 0, i32 5
  %49 = load i32, ptr %48, align 4, !tbaa !52
  %50 = icmp eq i32 %49, 2
  br i1 %50, label %51, label %54

51:                                               ; preds = %46
  %52 = load ptr, ptr %3, align 8, !tbaa !169
  %53 = call ptr @strvec_push(ptr noundef %52, ptr noundef @.str.97)
  br label %72

54:                                               ; preds = %46
  %55 = load ptr, ptr %4, align 8, !tbaa !111
  %56 = getelementptr inbounds nuw %struct.fetch_config, ptr %55, i32 0, i32 5
  %57 = load i32, ptr %56, align 4, !tbaa !52
  %58 = icmp eq i32 %57, 0
  br i1 %58, label %59, label %62

59:                                               ; preds = %54
  %60 = load ptr, ptr %3, align 8, !tbaa !169
  %61 = call ptr @strvec_push(ptr noundef %60, ptr noundef @.str.275)
  br label %71

62:                                               ; preds = %54
  %63 = load ptr, ptr %4, align 8, !tbaa !111
  %64 = getelementptr inbounds nuw %struct.fetch_config, ptr %63, i32 0, i32 5
  %65 = load i32, ptr %64, align 4, !tbaa !52
  %66 = icmp eq i32 %65, -1
  br i1 %66, label %67, label %70

67:                                               ; preds = %62
  %68 = load ptr, ptr %3, align 8, !tbaa !169
  %69 = call ptr @strvec_push(ptr noundef %68, ptr noundef @.str.276)
  br label %70

70:                                               ; preds = %67, %62
  br label %71

71:                                               ; preds = %70, %59
  br label %72

72:                                               ; preds = %71, %51
  %73 = load i32, ptr @tags, align 4, !tbaa !4
  %74 = icmp eq i32 %73, 2
  br i1 %74, label %75, label %78

75:                                               ; preds = %72
  %76 = load ptr, ptr %3, align 8, !tbaa !169
  %77 = call ptr @strvec_push(ptr noundef %76, ptr noundef @.str.277)
  br label %85

78:                                               ; preds = %72
  %79 = load i32, ptr @tags, align 4, !tbaa !4
  %80 = icmp eq i32 %79, 0
  br i1 %80, label %81, label %84

81:                                               ; preds = %78
  %82 = load ptr, ptr %3, align 8, !tbaa !169
  %83 = call ptr @strvec_push(ptr noundef %82, ptr noundef @.str.278)
  br label %84

84:                                               ; preds = %81, %78
  br label %85

85:                                               ; preds = %84, %75
  %86 = load i32, ptr @verbosity, align 4, !tbaa !4
  %87 = icmp sge i32 %86, 2
  br i1 %87, label %88, label %91

88:                                               ; preds = %85
  %89 = load ptr, ptr %3, align 8, !tbaa !169
  %90 = call ptr @strvec_push(ptr noundef %89, ptr noundef @.str.279)
  br label %91

91:                                               ; preds = %88, %85
  %92 = load i32, ptr @verbosity, align 4, !tbaa !4
  %93 = icmp sge i32 %92, 1
  br i1 %93, label %94, label %97

94:                                               ; preds = %91
  %95 = load ptr, ptr %3, align 8, !tbaa !169
  %96 = call ptr @strvec_push(ptr noundef %95, ptr noundef @.str.279)
  br label %104

97:                                               ; preds = %91
  %98 = load i32, ptr @verbosity, align 4, !tbaa !4
  %99 = icmp slt i32 %98, 0
  br i1 %99, label %100, label %103

100:                                              ; preds = %97
  %101 = load ptr, ptr %3, align 8, !tbaa !169
  %102 = call ptr @strvec_push(ptr noundef %101, ptr noundef @.str.280)
  br label %103

103:                                              ; preds = %100, %97
  br label %104

104:                                              ; preds = %103, %94
  %105 = load i32, ptr @family, align 4, !tbaa !4
  %106 = icmp eq i32 %105, 1
  br i1 %106, label %107, label %110

107:                                              ; preds = %104
  %108 = load ptr, ptr %3, align 8, !tbaa !169
  %109 = call ptr @strvec_push(ptr noundef %108, ptr noundef @.str.281)
  br label %117

110:                                              ; preds = %104
  %111 = load i32, ptr @family, align 4, !tbaa !4
  %112 = icmp eq i32 %111, 2
  br i1 %112, label %113, label %116

113:                                              ; preds = %110
  %114 = load ptr, ptr %3, align 8, !tbaa !169
  %115 = call ptr @strvec_push(ptr noundef %114, ptr noundef @.str.282)
  br label %116

116:                                              ; preds = %113, %110
  br label %117

117:                                              ; preds = %116, %107
  %118 = load i32, ptr @write_fetch_head, align 4, !tbaa !4
  %119 = icmp ne i32 %118, 0
  br i1 %119, label %123, label %120

120:                                              ; preds = %117
  %121 = load ptr, ptr %3, align 8, !tbaa !169
  %122 = call ptr @strvec_push(ptr noundef %121, ptr noundef @.str.283)
  br label %123

123:                                              ; preds = %120, %117
  %124 = load ptr, ptr %4, align 8, !tbaa !111
  %125 = getelementptr inbounds nuw %struct.fetch_config, ptr %124, i32 0, i32 0
  %126 = load i32, ptr %125, align 4, !tbaa !57
  %127 = icmp eq i32 %126, 2
  br i1 %127, label %128, label %131

128:                                              ; preds = %123
  %129 = load ptr, ptr %3, align 8, !tbaa !169
  %130 = call ptr (ptr, ptr, ...) @strvec_pushf(ptr noundef %129, ptr noundef @.str.98)
  br label %131

131:                                              ; preds = %128, %123
  ret void
}