; Function Attrs: nounwind uwtable
define internal fastcc void @add_options_to_argv(ptr noundef nonnull %0, ptr noundef nonnull readonly captures(none) %1) unnamed_addr #0 {
  %3 = load i32, ptr @dry_run, align 4, !tbaa !9
  %.not = icmp eq i32 %3, 0
  br i1 %.not, label %6, label %4

4:                                                ; preds = %2
  %5 = tail call ptr @strvec_push(ptr noundef nonnull %0, ptr noundef nonnull @.str.267) #20
  br label %6

6:                                                ; preds = %4, %2
  %7 = load i32, ptr @prune, align 4, !tbaa !9
  %.not27 = icmp eq i32 %7, -1
  br i1 %.not27, label %11, label %8

8:                                                ; preds = %6
  %.not28 = icmp eq i32 %7, 0
  %9 = select i1 %.not28, ptr @.str.269, ptr @.str.268
  %10 = tail call ptr @strvec_push(ptr noundef nonnull %0, ptr noundef nonnull %9) #20
  br label %11

11:                                               ; preds = %8, %6
  %12 = load i32, ptr @prune_tags, align 4, !tbaa !9
  %.not29 = icmp eq i32 %12, -1
  br i1 %.not29, label %16, label %13

13:                                               ; preds = %11
  %.not30 = icmp eq i32 %12, 0
  %14 = select i1 %.not30, ptr @.str.271, ptr @.str.270
  %15 = tail call ptr @strvec_push(ptr noundef nonnull %0, ptr noundef nonnull %14) #20
  br label %16

16:                                               ; preds = %13, %11
  %17 = load i32, ptr @update_head_ok, align 4, !tbaa !9
  %.not31 = icmp eq i32 %17, 0
  br i1 %.not31, label %20, label %18

18:                                               ; preds = %16
  %19 = tail call ptr @strvec_push(ptr noundef nonnull %0, ptr noundef nonnull @.str.272) #20
  br label %20

20:                                               ; preds = %18, %16
  %21 = load i32, ptr @force, align 4, !tbaa !9
  %.not32 = icmp eq i32 %21, 0
  br i1 %.not32, label %24, label %22

22:                                               ; preds = %20
  %23 = tail call ptr @strvec_push(ptr noundef nonnull %0, ptr noundef nonnull @.str.273) #20
  br label %24

24:                                               ; preds = %22, %20
  %25 = load i32, ptr @keep, align 4, !tbaa !9
  %.not33 = icmp eq i32 %25, 0
  br i1 %.not33, label %28, label %26

26:                                               ; preds = %24
  %27 = tail call ptr @strvec_push(ptr noundef nonnull %0, ptr noundef nonnull @.str.274) #20
  br label %28

28:                                               ; preds = %26, %24
  %29 = getelementptr inbounds nuw i8, ptr %1, i64 20
  %30 = load i32, ptr %29, align 4, !tbaa !45
  switch i32 %30, label %34 [
    i32 2, label %.sink.split
    i32 0, label %31
    i32 -1, label %32
  ]

31:                                               ; preds = %28
  br label %.sink.split

32:                                               ; preds = %28
  br label %.sink.split

.sink.split:                                      ; preds = %28, %32, %31
  %.str.275.sink = phi ptr [ @.str.275, %31 ], [ @.str.276, %32 ], [ @.str.97, %28 ]
  %33 = tail call ptr @strvec_push(ptr noundef nonnull %0, ptr noundef nonnull %.str.275.sink) #20
  br label %34

34:                                               ; preds = %.sink.split, %28
  %35 = load i32, ptr @tags, align 4, !tbaa !9
  switch i32 %35, label %38 [
    i32 2, label %.sink.split35
    i32 0, label %36
  ]

36:                                               ; preds = %34
  br label %.sink.split35

.sink.split35:                                    ; preds = %34, %36
  %.str.278.sink = phi ptr [ @.str.278, %36 ], [ @.str.277, %34 ]
  %37 = tail call ptr @strvec_push(ptr noundef nonnull %0, ptr noundef nonnull %.str.278.sink) #20
  br label %38

38:                                               ; preds = %.sink.split35, %34
  %39 = load i32, ptr @verbosity, align 4, !tbaa !9
  %40 = icmp sgt i32 %39, 1
  br i1 %40, label %41, label %43

41:                                               ; preds = %38
  %42 = tail call ptr @strvec_push(ptr noundef nonnull %0, ptr noundef nonnull @.str.279) #20
  %.pr = load i32, ptr @verbosity, align 4, !tbaa !9
  br label %43

43:                                               ; preds = %41, %38
  %44 = phi i32 [ %.pr, %41 ], [ %39, %38 ]
  %45 = icmp sgt i32 %44, 0
  br i1 %45, label %.sink.split36, label %46

46:                                               ; preds = %43
  %47 = icmp slt i32 %44, 0
  br i1 %47, label %.sink.split36, label %49

.sink.split36:                                    ; preds = %46, %43
  %.str.280.sink = phi ptr [ @.str.279, %43 ], [ @.str.280, %46 ]
  %48 = tail call ptr @strvec_push(ptr noundef nonnull %0, ptr noundef nonnull %.str.280.sink) #20
  br label %49

49:                                               ; preds = %.sink.split36, %46
  %50 = load i32, ptr @family, align 4, !tbaa !9
  switch i32 %50, label %53 [
    i32 1, label %.sink.split37
    i32 2, label %51
  ]

51:                                               ; preds = %49
  br label %.sink.split37

.sink.split37:                                    ; preds = %49, %51
  %.str.282.sink = phi ptr [ @.str.282, %51 ], [ @.str.281, %49 ]
  %52 = tail call ptr @strvec_push(ptr noundef nonnull %0, ptr noundef nonnull %.str.282.sink) #20
  br label %53

53:                                               ; preds = %.sink.split37, %49
  %54 = load i32, ptr @write_fetch_head, align 4, !tbaa !9
  %.not34 = icmp eq i32 %54, 0
  br i1 %.not34, label %55, label %57

55:                                               ; preds = %53
  %56 = tail call ptr @strvec_push(ptr noundef nonnull %0, ptr noundef nonnull @.str.283) #20
  br label %57

57:                                               ; preds = %55, %53
  %58 = load i32, ptr %1, align 4, !tbaa !48
  %59 = icmp eq i32 %58, 2
  br i1 %59, label %60, label %62

60:                                               ; preds = %57
  %61 = tail call ptr (ptr, ptr, ...) @strvec_pushf(ptr noundef nonnull %0, ptr noundef nonnull @.str.98) #20
  br label %62

62:                                               ; preds = %60, %57
  ret void
}